target datalayout = "e-m:e-p270:32:32-p271:32:32-p272:64:64-i64:64-i128:128-f80:128-n8:16:32:64-S128"
target triple = "x86_64-pc-linux-gnu"

%"class.clang::QualType" = type { %"class.llvm::PointerIntPair.135" }
%"class.llvm::PointerIntPair.135" = type { %"struct.llvm::detail::PunnedPointer.136" }
%"struct.llvm::detail::PunnedPointer.136" = type { [8 x i8] }
%"class.clang::SourceLocation" = type { i32 }
%"class.llvm::FoldingSetBase::Node" = type { ptr }
%"class.clang::ExtQualsTypeCommonBase" = type { ptr, %"class.clang::QualType" }
%union.anon.614 = type { %"class.clang::Type::FunctionTypeBitfields" }
%"class.clang::Type::FunctionTypeBitfields" = type { i64 }
%"class.clang::Type.base" = type { %"class.clang::ExtQualsTypeCommonBase", %union.anon.614 }
%"class.clang::DependentVectorType" = type <{ %"class.clang::Type.base", %"class.llvm::FoldingSetBase::Node", %"class.clang::QualType", ptr, %"class.clang::SourceLocation", [12 x i8] }>

; Function Attrs: mustprogress nounwind uwtable
define internal noundef zeroext i1 @_ZN5clang19RecursiveASTVisitorIN12_GLOBAL__N_110APICheckerEE9VisitTypeEPNS_4TypeE(ptr noundef nonnull align 1 dereferenceable(1) %0, ptr noundef %1) #0 align 2 {
  %3 = alloca ptr, align 8
  %4 = alloca ptr, align 8
  store ptr %0, ptr %3, align 8
  store ptr %1, ptr %4, align 8
  ret i1 true
}

; Function Attrs: mustprogress nounwind uwtable
define internal noundef zeroext i1 @_ZN5clang19RecursiveASTVisitorIN12_GLOBAL__N_110APICheckerEE24VisitDependentVectorTypeEPNS_19DependentVectorTypeE(ptr noundef nonnull align 1 dereferenceable(1) %0, ptr noundef %1) #0 align 2 {
  %3 = alloca ptr, align 8
  %4 = alloca ptr, align 8
  store ptr %0, ptr %3, align 8
  store ptr %1, ptr %4, align 8
  ret i1 true
}

; Function Attrs: mustprogress nounwind uwtable
define internal noundef zeroext i1 @_ZN5clang19RecursiveASTVisitorIN12_GLOBAL__N_110APICheckerEE14WalkUpFromTypeEPNS_4TypeE(ptr noundef nonnull align 1 dereferenceable(1) %0, ptr noundef %1) #0 align 2 {
  %3 = alloca ptr, align 8
  %4 = alloca ptr, align 8
  store ptr %0, ptr %3, align 8
  store ptr %1, ptr %4, align 8
  %5 = load ptr, ptr %3, align 8
  %6 = call noundef nonnull align 8 dereferenceable(48) ptr @_ZN5clang19RecursiveASTVisitorIN12_GLOBAL__N_110APICheckerEE10getDerivedEv(ptr noundef nonnull align 1 dereferenceable(1) %5)
  %7 = load ptr, ptr %4, align 8
  %8 = call noundef zeroext i1 @_ZN5clang19RecursiveASTVisitorIN12_GLOBAL__N_110APICheckerEE9VisitTypeEPNS_4TypeE(ptr noundef nonnull align 1 dereferenceable(1) %6, ptr noundef %7)
  ret i1 %8
}

; Function Attrs: mustprogress nounwind uwtable
define linkonce_odr hidden i64 @_ZNK5clang19DependentVectorType14getElementTypeEv(ptr noundef nonnull align 16 dereferenceable(52) %0) #0 comdat align 2 {
  %2 = alloca %"class.clang::QualType", align 8
  %3 = alloca ptr, align 8
  store ptr %0, ptr %3, align 8
  %4 = load ptr, ptr %3, align 8
  %5 = getelementptr inbounds nuw %"class.clang::DependentVectorType", ptr %4, i32 0, i32 2
  call void @llvm.memcpy.p0.p0.i64(ptr align 8 %2, ptr align 16 %5, i64 8, i1 false)
  %6 = getelementptr inbounds nuw %"class.clang::QualType", ptr %2, i32 0, i32 0
  %7 = getelementptr inbounds nuw %"class.llvm::PointerIntPair.135", ptr %6, i32 0, i32 0
  %8 = getelementptr inbounds nuw %"struct.llvm::detail::PunnedPointer.136", ptr %7, i32 0, i32 0
  %9 = load i64, ptr %8, align 8
  ret i64 %9
}

; Function Attrs: mustprogress nounwind uwtable
define linkonce_odr hidden noundef ptr @_ZNK5clang19DependentVectorType11getSizeExprEv(ptr noundef nonnull align 16 dereferenceable(52) %0) #0 comdat align 2 {
  %2 = alloca ptr, align 8
  store ptr %0, ptr %2, align 8
  %3 = load ptr, ptr %2, align 8
  %4 = getelementptr inbounds nuw %"class.clang::DependentVectorType", ptr %3, i32 0, i32 3
  %5 = load ptr, ptr %4, align 8
  ret ptr %5
}

; Function Attrs: mustprogress nounwind uwtable
define internal noundef zeroext i1 @_ZN5clang19RecursiveASTVisitorIN12_GLOBAL__N_110APICheckerEE29WalkUpFromDependentVectorTypeEPNS_19DependentVectorTypeE(ptr noundef nonnull align 1 dereferenceable(1) %0, ptr noundef %1) #0 align 2 {
  %3 = alloca i1, align 1
  %4 = alloca ptr, align 8
  %5 = alloca ptr, align 8
  store ptr %0, ptr %4, align 8
  store ptr %1, ptr %5, align 8
  %6 = load ptr, ptr %4, align 8
  br label %7

7:                                                ; preds = %2
  %8 = call noundef nonnull align 8 dereferenceable(48) ptr @_ZN5clang19RecursiveASTVisitorIN12_GLOBAL__N_110APICheckerEE10getDerivedEv(ptr noundef nonnull align 1 dereferenceable(1) %6)
  %9 = load ptr, ptr %5, align 8
  %10 = call noundef zeroext i1 @_ZN5clang19RecursiveASTVisitorIN12_GLOBAL__N_110APICheckerEE14WalkUpFromTypeEPNS_4TypeE(ptr noundef nonnull align 1 dereferenceable(1) %8, ptr noundef %9)
  br i1 %10, label %12, label %11

11:                                               ; preds = %7
  store i1 false, ptr %3, align 1
  br label %21

12:                                               ; preds = %7
  br label %13

13:                                               ; preds = %12
  br label %14

14:                                               ; preds = %13
  %15 = call noundef nonnull align 8 dereferenceable(48) ptr @_ZN5clang19RecursiveASTVisitorIN12_GLOBAL__N_110APICheckerEE10getDerivedEv(ptr noundef nonnull align 1 dereferenceable(1) %6)
  %16 = load ptr, ptr %5, align 8
  %17 = call noundef zeroext i1 @_ZN5clang19RecursiveASTVisitorIN12_GLOBAL__N_110APICheckerEE24VisitDependentVectorTypeEPNS_19DependentVectorTypeE(ptr noundef nonnull align 1 dereferenceable(1) %15, ptr noundef %16)
  br i1 %17, label %19, label %18

18:                                               ; preds = %14
  store i1 false, ptr %3, align 1
  br label %21

19:                                               ; preds = %14
  br label %20

20:                                               ; preds = %19
  store i1 true, ptr %3, align 1
  br label %21

21:                                               ; preds = %20, %18, %11
  %22 = load i1, ptr %3, align 1
  ret i1 %22
}

; Function Attrs: mustprogress nounwind uwtable
define internal noundef zeroext i1 @_ZNK5clang19RecursiveASTVisitorIN12_GLOBAL__N_110APICheckerEE23shouldTraversePostOrderEv(ptr noundef nonnull align 1 dereferenceable(1) %0) #0 align 2 {
  %2 = alloca ptr, align 8
  store ptr %0, ptr %2, align 8
  ret i1 false
}

; Function Attrs: mustprogress nounwind uwtable
define internal noundef nonnull align 8 dereferenceable(48) ptr @_ZN5clang19RecursiveASTVisitorIN12_GLOBAL__N_110APICheckerEE10getDerivedEv(ptr noundef nonnull align 1 dereferenceable(1) %0) #0 align 2 {
  %2 = alloca ptr, align 8
  store ptr %0, ptr %2, align 8
  %3 = load ptr, ptr %2, align 8
  ret ptr %3
}

; Function Attrs: mustprogress nounwind uwtable
define internal noundef zeroext i1 @_ZN5clang19RecursiveASTVisitorIN12_GLOBAL__N_110APICheckerEE27TraverseDependentVectorTypeEPNS_19DependentVectorTypeE(ptr noundef nonnull align 1 dereferenceable(1) %0, ptr noundef %1) #0 align 2 {
  %3 = alloca i1, align 1
  %4 = alloca ptr, align 8
  %5 = alloca ptr, align 8
  %6 = alloca %"class.clang::QualType", align 8
  store ptr %0, ptr %4, align 8
  store ptr %1, ptr %5, align 8
  %7 = load ptr, ptr %4, align 8
  %8 = call noundef nonnull align 8 dereferenceable(48) ptr @_ZN5clang19RecursiveASTVisitorIN12_GLOBAL__N_110APICheckerEE10getDerivedEv(ptr noundef nonnull align 1 dereferenceable(1) %7)
  %9 = call noundef zeroext i1 @_ZNK5clang19RecursiveASTVisitorIN12_GLOBAL__N_110APICheckerEE23shouldTraversePostOrderEv(ptr noundef nonnull align 1 dereferenceable(1) %8)
  br i1 %9, label %18, label %10

10:                                               ; preds = %2
  br label %11

11:                                               ; preds = %10
  %12 = call noundef nonnull align 8 dereferenceable(48) ptr @_ZN5clang19RecursiveASTVisitorIN12_GLOBAL__N_110APICheckerEE10getDerivedEv(ptr noundef nonnull align 1 dereferenceable(1) %7)
  %13 = load ptr, ptr %5, align 8
  %14 = call noundef zeroext i1 @_ZN5clang19RecursiveASTVisitorIN12_GLOBAL__N_110APICheckerEE29WalkUpFromDependentVectorTypeEPNS_19DependentVectorTypeE(ptr noundef nonnull align 1 dereferenceable(1) %12, ptr noundef %13)
  br i1 %14, label %16, label %15

15:                                               ; preds = %11
  store i1 false, ptr %3, align 1
  br label %58

16:                                               ; preds = %11
  br label %17

17:                                               ; preds = %16
  br label %18

18:                                               ; preds = %17, %2
  %19 = load ptr, ptr %5, align 8
  %20 = call noundef ptr @_ZNK5clang19DependentVectorType11getSizeExprEv(ptr noundef nonnull align 16 dereferenceable(52) %19)
  %21 = icmp ne ptr %20, null
  br i1 %21, label %22, label %31

22:                                               ; preds = %18
  br label %23

23:                                               ; preds = %22
  %24 = call noundef nonnull align 8 dereferenceable(48) ptr @_ZN5clang19RecursiveASTVisitorIN12_GLOBAL__N_110APICheckerEE10getDerivedEv(ptr noundef nonnull align 1 dereferenceable(1) %7)
  %25 = load ptr, ptr %5, align 8
  %26 = call noundef ptr @_ZNK5clang19DependentVectorType11getSizeExprEv(ptr noundef nonnull align 16 dereferenceable(52) %25)
  %27 = call noundef zeroext i1 @_ZN5clang19RecursiveASTVisitorIN12_GLOBAL__N_110APICheckerEE12TraverseStmtEPNS_4StmtEPN4llvm15SmallVectorImplINS6_14PointerIntPairIS5_Lj1EbNS6_21PointerLikeTypeTraitsIS5_EENS6_18PointerIntPairInfoIS5_Lj1ESA_EEEEEE(ptr noundef nonnull align 1 dereferenceable(1) %24, ptr noundef %26, ptr noundef null)
  br i1 %27, label %29, label %28

28:                                               ; preds = %23
  store i1 false, ptr %3, align 1
  br label %58

29:                                               ; preds = %23
  br label %30

30:                                               ; preds = %29
  br label %31

31:                                               ; preds = %30, %18
  br label %32

32:                                               ; preds = %31
  %33 = call noundef nonnull align 8 dereferenceable(48) ptr @_ZN5clang19RecursiveASTVisitorIN12_GLOBAL__N_110APICheckerEE10getDerivedEv(ptr noundef nonnull align 1 dereferenceable(1) %7)
  %34 = load ptr, ptr %5, align 8
  %35 = call i64 @_ZNK5clang19DependentVectorType14getElementTypeEv(ptr noundef nonnull align 16 dereferenceable(52) %34)
  %36 = getelementptr inbounds nuw %"class.clang::QualType", ptr %6, i32 0, i32 0
  %37 = getelementptr inbounds nuw %"class.llvm::PointerIntPair.135", ptr %36, i32 0, i32 0
  %38 = getelementptr inbounds nuw %"struct.llvm::detail::PunnedPointer.136", ptr %37, i32 0, i32 0
  store i64 %35, ptr %38, align 8
  %39 = getelementptr inbounds nuw %"class.clang::QualType", ptr %6, i32 0, i32 0
  %40 = getelementptr inbounds nuw %"class.llvm::PointerIntPair.135", ptr %39, i32 0, i32 0
  %41 = getelementptr inbounds nuw %"struct.llvm::detail::PunnedPointer.136", ptr %40, i32 0, i32 0
  %42 = load i64, ptr %41, align 8
  %43 = call noundef zeroext i1 @_ZN5clang19RecursiveASTVisitorIN12_GLOBAL__N_110APICheckerEE12TraverseTypeENS_8QualTypeE(ptr noundef nonnull align 1 dereferenceable(1) %33, i64 %42)
  br i1 %43, label %45, label %44

44:                                               ; preds = %32
  store i1 false, ptr %3, align 1
  br label %58

45:                                               ; preds = %32
  br label %46

46:                                               ; preds = %45
  %47 = call noundef nonnull align 8 dereferenceable(48) ptr @_ZN5clang19RecursiveASTVisitorIN12_GLOBAL__N_110APICheckerEE10getDerivedEv(ptr noundef nonnull align 1 dereferenceable(1) %7)
  %48 = call noundef zeroext i1 @_ZNK5clang19RecursiveASTVisitorIN12_GLOBAL__N_110APICheckerEE23shouldTraversePostOrderEv(ptr noundef nonnull align 1 dereferenceable(1) %47)
  br i1 %48, label %49, label %57

49:                                               ; preds = %46
  br label %50

50:                                               ; preds = %49
  %51 = call noundef nonnull align 8 dereferenceable(48) ptr @_ZN5clang19RecursiveASTVisitorIN12_GLOBAL__N_110APICheckerEE10getDerivedEv(ptr noundef nonnull align 1 dereferenceable(1) %7)
  %52 = load ptr, ptr %5, align 8
  %53 = call noundef zeroext i1 @_ZN5clang19RecursiveASTVisitorIN12_GLOBAL__N_110APICheckerEE29WalkUpFromDependentVectorTypeEPNS_19DependentVectorTypeE(ptr noundef nonnull align 1 dereferenceable(1) %51, ptr noundef %52)
  br i1 %53, label %55, label %54

54:                                               ; preds = %50
  store i1 false, ptr %3, align 1
  br label %58

55:                                               ; preds = %50
  br label %56

56:                                               ; preds = %55
  br label %57

57:                                               ; preds = %56, %46
  store i1 true, ptr %3, align 1
  br label %58

58:                                               ; preds = %57, %54, %44, %28, %15
  %59 = load i1, ptr %3, align 1
  ret i1 %59
}